; Function Attrs: mustprogress nofree norecurse nosync nounwind willreturn memory(read, inaccessiblemem: none) uwtable
define hidden noundef zeroext i1 @_ZN6spacer5lemma8is_falseEv(ptr noundef nonnull readonly align 8 captures(none) dereferenceable(109) %0) local_unnamed_addr #7 align 2 {
  %2 = getelementptr inbounds nuw i8, ptr %0, i64 40
  %3 = load ptr, ptr %2, align 8, !tbaa !187
  %4 = icmp eq ptr %3, null
  br i1 %4, label %_ZNK15ref_vector_coreI4expr19ref_manager_wrapperIS0_11ast_managerEE4sizeEv.exit.thread, label %_ZNK15ref_vector_coreI4expr19ref_manager_wrapperIS0_11ast_managerEE4sizeEv.exit

_ZNK15ref_vector_coreI4expr19ref_manager_wrapperIS0_11ast_managerEE4sizeEv.exit: ; preds = %1
  %5 = getelementptr inbounds i8, ptr %3, i64 -4
  %6 = load i32, ptr %5, align 4, !tbaa !100
  %7 = icmp eq i32 %6, 1
  br i1 %7, label %8, label %_ZNK15ref_vector_coreI4expr19ref_manager_wrapperIS0_11ast_managerEE4sizeEv.exit.thread

8:                                                ; preds = %_ZNK15ref_vector_coreI4expr19ref_manager_wrapperIS0_11ast_managerEE4sizeEv.exit
  %9 = getelementptr inbounds nuw i8, ptr %0, i64 8
  %10 = load ptr, ptr %9, align 8, !tbaa !344
  %11 = load ptr, ptr %3, align 8, !tbaa !182
  %12 = getelementptr inbounds nuw i8, ptr %10, i64 856
  %13 = load ptr, ptr %12, align 8, !tbaa !213
  %14 = icmp eq ptr %11, %13
  br label %34

_ZNK15ref_vector_coreI4expr19ref_manager_wrapperIS0_11ast_managerEE4sizeEv.exit.thread: ; preds = %1, %_ZNK15ref_vector_coreI4expr19ref_manager_wrapperIS0_11ast_managerEE4sizeEv.exit
  %15 = getelementptr inbounds nuw i8, ptr %0, i64 16
  %16 = load ptr, ptr %15, align 8, !tbaa !93
  %.not = icmp eq ptr %16, null
  br i1 %.not, label %23, label %17

17:                                               ; preds = %_ZNK15ref_vector_coreI4expr19ref_manager_wrapperIS0_11ast_managerEE4sizeEv.exit.thread
  %18 = getelementptr inbounds nuw i8, ptr %0, i64 8
  %19 = load ptr, ptr %18, align 8, !tbaa !344
  %20 = getelementptr inbounds nuw i8, ptr %19, i64 864
  %21 = load ptr, ptr %20, align 8, !tbaa !274
  %22 = icmp eq ptr %16, %21
  br label %34

23:                                               ; preds = %_ZNK15ref_vector_coreI4expr19ref_manager_wrapperIS0_11ast_managerEE4sizeEv.exit.thread
  %24 = getelementptr inbounds nuw i8, ptr %0, i64 80
  %25 = load ptr, ptr %24, align 8, !tbaa !31
  %.not3 = icmp eq ptr %25, null
  br i1 %.not3, label %34, label %26

26:                                               ; preds = %23
  %27 = getelementptr inbounds nuw i8, ptr %0, i64 8
  %28 = load ptr, ptr %27, align 8, !tbaa !344
  %29 = getelementptr inbounds nuw i8, ptr %25, i64 24
  %30 = load ptr, ptr %29, align 8, !tbaa !93
  %31 = getelementptr inbounds nuw i8, ptr %28, i64 856
  %32 = load ptr, ptr %31, align 8, !tbaa !213
  %33 = icmp eq ptr %30, %32
  br label %34

34:                                               ; preds = %23, %26, %17, %8
  %.0 = phi i1 [ %14, %8 ], [ %22, %17 ], [ %33, %26 ], [ false, %23 ]
  ret i1 %.0
}